target datalayout = "e-m:e-p270:32:32-p271:32:32-p272:64:64-i64:64-i128:128-f80:128-n8:16:32:64-S128"
target triple = "x86_64-pc-linux-gnu"

%struct.Abc_Ntk_t_ = type { i32, i32, ptr, ptr, ptr, ptr, ptr, ptr, ptr, ptr, ptr, ptr, ptr, [11 x i32], i32, i32, i32, i32, ptr, i32, ptr, ptr, i32, i32, i32, double, i32, %struct.Vec_Int_t_, ptr, ptr, ptr, ptr, ptr, float, i32, ptr, ptr, ptr, ptr, ptr, ptr, ptr, ptr, ptr, ptr, ptr, ptr, ptr, ptr, ptr, ptr, ptr, ptr, ptr, ptr, ptr }
%struct.Vec_Int_t_ = type { i32, i32, ptr }
%struct.Vec_Ptr_t_ = type { i32, i32, ptr }
%struct.Abc_Obj_t_ = type { ptr, ptr, i32, i32, %struct.Vec_Int_t_, %struct.Vec_Int_t_, %union.anon, %union.anon.0 }
%union.anon = type { ptr }
%union.anon.0 = type { ptr }
%struct.Dec_Graph_t_ = type { i32, i32, i32, i32, ptr, %struct.Dec_Edge_t_ }
%struct.Dec_Edge_t_ = type { i32 }

; Function Attrs: nounwind uwtable
define internal ptr @Vec_PtrEntry(ptr noundef %0, i32 noundef %1) #0 {
  %3 = alloca ptr, align 8
  %4 = alloca i32, align 4
  store ptr %0, ptr %3, align 8
  store i32 %1, ptr %4, align 4
  %5 = load ptr, ptr %3, align 8
  %6 = getelementptr inbounds %struct.Vec_Ptr_t_, ptr %5, i32 0, i32 2
  %7 = load ptr, ptr %6, align 8
  %8 = load i32, ptr %4, align 4
  %9 = sext i32 %8 to i64
  %10 = getelementptr inbounds ptr, ptr %7, i64 %9
  %11 = load ptr, ptr %10, align 8
  ret ptr %11
}

; Function Attrs: nounwind uwtable
define internal void @Dec_GraphFree(ptr noundef %0) #0 {
  %2 = alloca ptr, align 8
  store ptr %0, ptr %2, align 8
  %3 = load ptr, ptr %2, align 8
  %4 = getelementptr inbounds %struct.Dec_Graph_t_, ptr %3, i32 0, i32 4
  %5 = load ptr, ptr %4, align 8
  %6 = icmp ne ptr %5, null
  br i1 %6, label %7, label %13

7:                                                ; preds = %1
  %8 = load ptr, ptr %2, align 8
  %9 = getelementptr inbounds %struct.Dec_Graph_t_, ptr %8, i32 0, i32 4
  %10 = load ptr, ptr %9, align 8
  call void @free(ptr noundef %10) #11
  %11 = load ptr, ptr %2, align 8
  %12 = getelementptr inbounds %struct.Dec_Graph_t_, ptr %11, i32 0, i32 4
  store ptr null, ptr %12, align 8
  br label %14

13:                                               ; preds = %1
  br label %14

14:                                               ; preds = %13, %7
  %15 = load ptr, ptr %2, align 8
  %16 = icmp ne ptr %15, null
  br i1 %16, label %17, label %19

17:                                               ; preds = %14
  %18 = load ptr, ptr %2, align 8
  call void @free(ptr noundef %18) #11
  store ptr null, ptr %2, align 8
  br label %20

19:                                               ; preds = %14
  br label %20

20:                                               ; preds = %19, %17
  ret void
}

; Function Attrs: nounwind uwtable
define internal i32 @Dec_GraphNodeNum(ptr noundef %0) #0 {
  %2 = alloca ptr, align 8
  store ptr %0, ptr %2, align 8
  %3 = load ptr, ptr %2, align 8
  %4 = getelementptr inbounds %struct.Dec_Graph_t_, ptr %3, i32 0, i32 2
  %5 = load i32, ptr %4, align 8
  %6 = load ptr, ptr %2, align 8
  %7 = getelementptr inbounds %struct.Dec_Graph_t_, ptr %6, i32 0, i32 1
  %8 = load i32, ptr %7, align 4
  %9 = sub nsw i32 %5, %8
  ret i32 %9
}

; Function Attrs: nounwind uwtable
define internal i32 @Abc_ObjIsNode(ptr noundef %0) #0 {
  %2 = alloca ptr, align 8
  store ptr %0, ptr %2, align 8
  %3 = load ptr, ptr %2, align 8
  %4 = getelementptr inbounds %struct.Abc_Obj_t_, ptr %3, i32 0, i32 3
  %5 = load i32, ptr %4, align 4
  %6 = and i32 %5, 15
  %7 = icmp eq i32 %6, 7
  %8 = zext i1 %7 to i32
  ret i32 %8
}

; Function Attrs: nounwind uwtable
define internal ptr @Abc_NtkObj(ptr noundef %0, i32 noundef %1) #0 {
  %3 = alloca ptr, align 8
  %4 = alloca i32, align 4
  store ptr %0, ptr %3, align 8
  store i32 %1, ptr %4, align 4
  %5 = load ptr, ptr %3, align 8
  %6 = getelementptr inbounds %struct.Abc_Ntk_t_, ptr %5, i32 0, i32 5
  %7 = load ptr, ptr %6, align 8
  %8 = load i32, ptr %4, align 4
  %9 = call ptr @Vec_PtrEntry(ptr noundef %7, i32 noundef %8)
  ret ptr %9
}

; Function Attrs: nounwind uwtable
define internal i32 @Vec_PtrSize(ptr noundef %0) #0 {
  %2 = alloca ptr, align 8
  store ptr %0, ptr %2, align 8
  %3 = load ptr, ptr %2, align 8
  %4 = getelementptr inbounds %struct.Vec_Ptr_t_, ptr %3, i32 0, i32 1
  %5 = load i32, ptr %4, align 4
  ret i32 %5
}

; Function Attrs: nounwind uwtable
define i32 @Abc_NtkGetLitFactNum(ptr noundef %0) #0 {
  %2 = alloca ptr, align 8
  %3 = alloca ptr, align 8
  %4 = alloca ptr, align 8
  %5 = alloca i32, align 4
  %6 = alloca i32, align 4
  store ptr %0, ptr %2, align 8
  store i32 0, ptr %5, align 4
  store i32 0, ptr %6, align 4
  br label %7

7:                                                ; preds = %45, %1
  %8 = load i32, ptr %6, align 4
  %9 = load ptr, ptr %2, align 8
  %10 = getelementptr inbounds %struct.Abc_Ntk_t_, ptr %9, i32 0, i32 5
  %11 = load ptr, ptr %10, align 8
  %12 = call i32 @Vec_PtrSize(ptr noundef %11)
  %13 = icmp slt i32 %8, %12
  br i1 %13, label %14, label %18

14:                                               ; preds = %7
  %15 = load ptr, ptr %2, align 8
  %16 = load i32, ptr %6, align 4
  %17 = call ptr @Abc_NtkObj(ptr noundef %15, i32 noundef %16)
  store ptr %17, ptr %4, align 8
  br label %18

18:                                               ; preds = %14, %7
  %19 = phi i1 [ false, %7 ], [ true, %14 ]
  br i1 %19, label %20, label %48

20:                                               ; preds = %18
  %21 = load ptr, ptr %4, align 8
  %22 = icmp eq ptr %21, null
  br i1 %22, label %27, label %23

23:                                               ; preds = %20
  %24 = load ptr, ptr %4, align 8
  %25 = call i32 @Abc_ObjIsNode(ptr noundef %24)
  %26 = icmp ne i32 %25, 0
  br i1 %26, label %28, label %27

27:                                               ; preds = %23, %20
  br label %44

28:                                               ; preds = %23
  %29 = load ptr, ptr %4, align 8
  %30 = call i32 @Abc_NodeIsConst(ptr noundef %29)
  %31 = icmp ne i32 %30, 0
  br i1 %31, label %32, label %33

32:                                               ; preds = %28
  br label %45

33:                                               ; preds = %28
  %34 = load ptr, ptr %4, align 8
  %35 = getelementptr inbounds %struct.Abc_Obj_t_, ptr %34, i32 0, i32 6
  %36 = load ptr, ptr %35, align 8
  %37 = call ptr @Dec_Factor(ptr noundef %36)
  store ptr %37, ptr %3, align 8
  %38 = load ptr, ptr %3, align 8
  %39 = call i32 @Dec_GraphNodeNum(ptr noundef %38)
  %40 = add nsw i32 1, %39
  %41 = load i32, ptr %5, align 4
  %42 = add nsw i32 %41, %40
  store i32 %42, ptr %5, align 4
  %43 = load ptr, ptr %3, align 8
  call void @Dec_GraphFree(ptr noundef %43)
  br label %44

44:                                               ; preds = %33, %27
  br label %45

45:                                               ; preds = %44, %32
  %46 = load i32, ptr %6, align 4
  %47 = add nsw i32 %46, 1
  store i32 %47, ptr %6, align 4
  br label %7, !llvm.loop !17

48:                                               ; preds = %18
  %49 = load i32, ptr %5, align 4
  ret i32 %49
}