; Function Attrs: nounwind uwtable
define i32 @Abc_NtkGetLitFactNum(ptr noundef readonly captures(none) %0) local_unnamed_addr #0 {
  %2 = getelementptr inbounds nuw i8, ptr %0, i64 32
  %3 = load ptr, ptr %2, align 8
  %4 = getelementptr i8, ptr %3, i64 4
  %.val19 = load i32, ptr %4, align 4
  %5 = icmp sgt i32 %.val19, 0
  br i1 %5, label %.lr.ph, label %.critedge

.lr.ph:                                           ; preds = %1, %28
  %indvars.iv = phi i64 [ %indvars.iv.next, %28 ], [ 0, %1 ]
  %6 = phi ptr [ %29, %28 ], [ %3, %1 ]
  %.01220 = phi i32 [ %.1, %28 ], [ 0, %1 ]
  %7 = getelementptr i8, ptr %6, i64 8
  %.val15.val = load ptr, ptr %7, align 8
  %8 = getelementptr inbounds nuw ptr, ptr %.val15.val, i64 %indvars.iv
  %9 = load ptr, ptr %8, align 8
  %10 = icmp eq ptr %9, null
  br i1 %10, label %28, label %11

11:                                               ; preds = %.lr.ph
  %12 = getelementptr i8, ptr %9, i64 20
  %.val16 = load i32, ptr %12, align 4
  %13 = and i32 %.val16, 15
  %.not = icmp eq i32 %13, 7
  br i1 %.not, label %14, label %28

14:                                               ; preds = %11
  %15 = tail call i32 @Abc_NodeIsConst(ptr noundef nonnull %9) #28
  %.not14 = icmp eq i32 %15, 0
  br i1 %.not14, label %16, label %28

16:                                               ; preds = %14
  %17 = getelementptr inbounds nuw i8, ptr %9, i64 56
  %18 = load ptr, ptr %17, align 8
  %19 = tail call ptr @Dec_Factor(ptr noundef %18) #28
  %20 = getelementptr i8, ptr %19, i64 4
  %.val17 = load i32, ptr %20, align 4
  %21 = getelementptr i8, ptr %19, i64 8
  %.val18 = load i32, ptr %21, align 8
  %22 = add i32 %.01220, 1
  %23 = sub i32 %22, %.val17
  %24 = add i32 %23, %.val18
  %25 = getelementptr inbounds nuw i8, ptr %19, i64 16
  %26 = load ptr, ptr %25, align 8
  %.not.i = icmp eq ptr %26, null
  br i1 %.not.i, label %Dec_GraphFree.exit, label %27

27:                                               ; preds = %16
  tail call void @free(ptr noundef nonnull %26) #28
  br label %Dec_GraphFree.exit

Dec_GraphFree.exit:                               ; preds = %16, %27
  tail call void @free(ptr noundef nonnull %19) #28
  br label %28

28:                                               ; preds = %Dec_GraphFree.exit, %11, %.lr.ph, %14
  %.1 = phi i32 [ %.01220, %.lr.ph ], [ %.01220, %14 ], [ %24, %Dec_GraphFree.exit ], [ %.01220, %11 ]
  %indvars.iv.next = add nuw nsw i64 %indvars.iv, 1
  %29 = load ptr, ptr %2, align 8
  %30 = getelementptr i8, ptr %29, i64 4
  %.val = load i32, ptr %30, align 4
  %31 = sext i32 %.val to i64
  %32 = icmp slt i64 %indvars.iv.next, %31
  br i1 %32, label %.lr.ph, label %.critedge, !llvm.loop !17

.critedge:                                        ; preds = %28, %1
  %.012.lcssa = phi i32 [ 0, %1 ], [ %.1, %28 ]
  ret i32 %.012.lcssa
}